; Function Attrs: nounwind uwtable
define void @lv_fs_drv_register(ptr noundef %0) local_unnamed_addr #0 {
  %2 = tail call ptr @lv_ll_ins_head(ptr noundef nonnull getelementptr inbounds nuw (i8, ptr @lv_global, i64 832)) #6
  %.not = icmp eq ptr %2, null
  br i1 %.not, label %.preheader, label %3

.preheader:                                       ; preds = %1, %.preheader
  br label %.preheader

3:                                                ; preds = %1
  store ptr %0, ptr %2, align 8, !tbaa !3
  ret void
}